target datalayout = "e-m:e-p270:32:32-p271:32:32-p272:64:64-i64:64-i128:128-f80:128-n8:16:32:64-S128"
target triple = "x86_64-pc-linux-gnu"

%struct.AVFilterContext = type { ptr, ptr, ptr, ptr, ptr, i32, ptr, ptr, i32, ptr, ptr, i32, i32, ptr, ptr, ptr, ptr, i32, ptr, i32, i32 }
%struct.AudioRNNContext = type { ptr, ptr, float, i32, ptr, [960 x float], [24 x [24 x float]], [2 x ptr], ptr, [8 x i8] }
%struct.DenoiseState = type { [480 x float], [8 x [22 x float]], i32, [12 x i8], [480 x float], [1728 x float], [1728 x float], float, i32, [2 x float], [22 x float], [480 x float], [2 x %struct.RNNState], ptr, ptr, ptr, ptr, [8 x i8] }
%struct.RNNState = type { ptr, ptr, ptr, ptr }

; Function Attrs: nounwind uwtable
define internal void @free_model(ptr noundef %0, i32 noundef %1) #1 {
  %3 = alloca ptr, align 8
  %4 = alloca i32, align 4
  %5 = alloca ptr, align 8
  %6 = alloca i32, align 4
  store ptr %0, ptr %3, align 8, !tbaa !4
  store i32 %1, ptr %4, align 4, !tbaa !29
  call void @llvm.lifetime.start.p0(i64 8, ptr %5) #11
  %7 = load ptr, ptr %3, align 8, !tbaa !4
  %8 = getelementptr inbounds nuw %struct.AVFilterContext, ptr %7, i32 0, i32 9
  %9 = load ptr, ptr %8, align 8, !tbaa !9
  store ptr %9, ptr %5, align 8, !tbaa !22
  %10 = load ptr, ptr %5, align 8, !tbaa !22
  %11 = getelementptr inbounds nuw %struct.AudioRNNContext, ptr %10, i32 0, i32 7
  %12 = load i32, ptr %4, align 4, !tbaa !29
  %13 = sext i32 %12 to i64
  %14 = getelementptr inbounds [2 x ptr], ptr %11, i64 0, i64 %13
  %15 = load ptr, ptr %14, align 8, !tbaa !41
  call void @rnnoise_model_free(ptr noundef %15)
  %16 = load ptr, ptr %5, align 8, !tbaa !22
  %17 = getelementptr inbounds nuw %struct.AudioRNNContext, ptr %16, i32 0, i32 7
  %18 = load i32, ptr %4, align 4, !tbaa !29
  %19 = sext i32 %18 to i64
  %20 = getelementptr inbounds [2 x ptr], ptr %17, i64 0, i64 %19
  store ptr null, ptr %20, align 8, !tbaa !41
  call void @llvm.lifetime.start.p0(i64 4, ptr %6) #11
  store i32 0, ptr %6, align 4, !tbaa !29
  br label %21

21:                                               ; preds = %69, %2
  %22 = load i32, ptr %6, align 4, !tbaa !29
  %23 = load ptr, ptr %5, align 8, !tbaa !22
  %24 = getelementptr inbounds nuw %struct.AudioRNNContext, ptr %23, i32 0, i32 3
  %25 = load i32, ptr %24, align 4, !tbaa !35
  %26 = icmp slt i32 %22, %25
  br i1 %26, label %27, label %32

27:                                               ; preds = %21
  %28 = load ptr, ptr %5, align 8, !tbaa !22
  %29 = getelementptr inbounds nuw %struct.AudioRNNContext, ptr %28, i32 0, i32 4
  %30 = load ptr, ptr %29, align 8, !tbaa !36
  %31 = icmp ne ptr %30, null
  br label %32

32:                                               ; preds = %27, %21
  %33 = phi i1 [ false, %21 ], [ %31, %27 ]
  br i1 %33, label %35, label %34

34:                                               ; preds = %32
  call void @llvm.lifetime.end.p0(i64 4, ptr %6) #11
  br label %72

35:                                               ; preds = %32
  %36 = load ptr, ptr %5, align 8, !tbaa !22
  %37 = getelementptr inbounds nuw %struct.AudioRNNContext, ptr %36, i32 0, i32 4
  %38 = load ptr, ptr %37, align 8, !tbaa !36
  %39 = load i32, ptr %6, align 4, !tbaa !29
  %40 = sext i32 %39 to i64
  %41 = getelementptr inbounds %struct.DenoiseState, ptr %38, i64 %40
  %42 = getelementptr inbounds nuw %struct.DenoiseState, ptr %41, i32 0, i32 12
  %43 = load i32, ptr %4, align 4, !tbaa !29
  %44 = sext i32 %43 to i64
  %45 = getelementptr inbounds [2 x %struct.RNNState], ptr %42, i64 0, i64 %44
  %46 = getelementptr inbounds nuw %struct.RNNState, ptr %45, i32 0, i32 0
  call void @av_freep(ptr noundef %46)
  %47 = load ptr, ptr %5, align 8, !tbaa !22
  %48 = getelementptr inbounds nuw %struct.AudioRNNContext, ptr %47, i32 0, i32 4
  %49 = load ptr, ptr %48, align 8, !tbaa !36
  %50 = load i32, ptr %6, align 4, !tbaa !29
  %51 = sext i32 %50 to i64
  %52 = getelementptr inbounds %struct.DenoiseState, ptr %49, i64 %51
  %53 = getelementptr inbounds nuw %struct.DenoiseState, ptr %52, i32 0, i32 12
  %54 = load i32, ptr %4, align 4, !tbaa !29
  %55 = sext i32 %54 to i64
  %56 = getelementptr inbounds [2 x %struct.RNNState], ptr %53, i64 0, i64 %55
  %57 = getelementptr inbounds nuw %struct.RNNState, ptr %56, i32 0, i32 1
  call void @av_freep(ptr noundef %57)
  %58 = load ptr, ptr %5, align 8, !tbaa !22
  %59 = getelementptr inbounds nuw %struct.AudioRNNContext, ptr %58, i32 0, i32 4
  %60 = load ptr, ptr %59, align 8, !tbaa !36
  %61 = load i32, ptr %6, align 4, !tbaa !29
  %62 = sext i32 %61 to i64
  %63 = getelementptr inbounds %struct.DenoiseState, ptr %60, i64 %62
  %64 = getelementptr inbounds nuw %struct.DenoiseState, ptr %63, i32 0, i32 12
  %65 = load i32, ptr %4, align 4, !tbaa !29
  %66 = sext i32 %65 to i64
  %67 = getelementptr inbounds [2 x %struct.RNNState], ptr %64, i64 0, i64 %66
  %68 = getelementptr inbounds nuw %struct.RNNState, ptr %67, i32 0, i32 2
  call void @av_freep(ptr noundef %68)
  br label %69

69:                                               ; preds = %35
  %70 = load i32, ptr %6, align 4, !tbaa !29
  %71 = add nsw i32 %70, 1
  store i32 %71, ptr %6, align 4, !tbaa !29
  br label %21, !llvm.loop !160

72:                                               ; preds = %34
  call void @llvm.lifetime.end.p0(i64 8, ptr %5) #11
  ret void
}

; Function Attrs: nounwind uwtable
define internal i32 @process_command(ptr noundef %0, ptr noundef %1, ptr noundef %2, ptr noundef %3, i32 noundef %4, i32 noundef %5) #1 {
  %7 = alloca i32, align 4
  %8 = alloca ptr, align 8
  %9 = alloca ptr, align 8
  %10 = alloca ptr, align 8
  %11 = alloca ptr, align 8
  %12 = alloca i32, align 4
  %13 = alloca i32, align 4
  %14 = alloca ptr, align 8
  %15 = alloca i32, align 4
  %16 = alloca i32, align 4
  %17 = alloca ptr, align 8
  %18 = alloca i32, align 4
  %19 = alloca %struct.RNNState, align 8
  %20 = alloca i32, align 4
  %21 = alloca %struct.RNNState, align 8
  %22 = alloca ptr, align 8
  store ptr %0, ptr %8, align 8, !tbaa !4
  store ptr %1, ptr %9, align 8, !tbaa !40
  store ptr %2, ptr %10, align 8, !tbaa !40
  store ptr %3, ptr %11, align 8, !tbaa !40
  store i32 %4, ptr %12, align 4, !tbaa !29
  store i32 %5, ptr %13, align 4, !tbaa !29
  call void @llvm.lifetime.start.p0(i64 8, ptr %14) #11
  %23 = load ptr, ptr %8, align 8, !tbaa !4
  %24 = getelementptr inbounds nuw %struct.AVFilterContext, ptr %23, i32 0, i32 9
  %25 = load ptr, ptr %24, align 8, !tbaa !9
  store ptr %25, ptr %14, align 8, !tbaa !22
  call void @llvm.lifetime.start.p0(i64 4, ptr %15) #11
  %26 = load ptr, ptr %8, align 8, !tbaa !4
  %27 = load ptr, ptr %9, align 8, !tbaa !40
  %28 = load ptr, ptr %10, align 8, !tbaa !40
  %29 = load ptr, ptr %11, align 8, !tbaa !40
  %30 = load i32, ptr %12, align 4, !tbaa !29
  %31 = load i32, ptr %13, align 4, !tbaa !29
  %32 = call i32 @ff_filter_process_command(ptr noundef %26, ptr noundef %27, ptr noundef %28, ptr noundef %29, i32 noundef %30, i32 noundef %31)
  store i32 %32, ptr %15, align 4, !tbaa !29
  %33 = load i32, ptr %15, align 4, !tbaa !29
  %34 = icmp slt i32 %33, 0
  br i1 %34, label %35, label %37

35:                                               ; preds = %6
  %36 = load i32, ptr %15, align 4, !tbaa !29
  store i32 %36, ptr %7, align 4
  store i32 1, ptr %16, align 4
  br label %190

37:                                               ; preds = %6
  %38 = load ptr, ptr %8, align 8, !tbaa !4
  %39 = load ptr, ptr %14, align 8, !tbaa !22
  %40 = getelementptr inbounds nuw %struct.AudioRNNContext, ptr %39, i32 0, i32 7
  %41 = getelementptr inbounds [2 x ptr], ptr %40, i64 0, i64 1
  %42 = call i32 @open_model(ptr noundef %38, ptr noundef %41)
  store i32 %42, ptr %15, align 4, !tbaa !29
  %43 = load i32, ptr %15, align 4, !tbaa !29
  %44 = icmp slt i32 %43, 0
  br i1 %44, label %45, label %47

45:                                               ; preds = %37
  %46 = load i32, ptr %15, align 4, !tbaa !29
  store i32 %46, ptr %7, align 4
  store i32 1, ptr %16, align 4
  br label %190

47:                                               ; preds = %37
  br label %48

48:                                               ; preds = %47
  call void @llvm.lifetime.start.p0(i64 8, ptr %17) #11
  %49 = load ptr, ptr %14, align 8, !tbaa !22
  %50 = getelementptr inbounds nuw %struct.AudioRNNContext, ptr %49, i32 0, i32 7
  %51 = getelementptr inbounds [2 x ptr], ptr %50, i64 0, i64 1
  %52 = load ptr, ptr %51, align 8, !tbaa !41
  store ptr %52, ptr %17, align 8, !tbaa !41
  %53 = load ptr, ptr %14, align 8, !tbaa !22
  %54 = getelementptr inbounds nuw %struct.AudioRNNContext, ptr %53, i32 0, i32 7
  %55 = getelementptr inbounds [2 x ptr], ptr %54, i64 0, i64 0
  %56 = load ptr, ptr %55, align 16, !tbaa !41
  %57 = load ptr, ptr %14, align 8, !tbaa !22
  %58 = getelementptr inbounds nuw %struct.AudioRNNContext, ptr %57, i32 0, i32 7
  %59 = getelementptr inbounds [2 x ptr], ptr %58, i64 0, i64 1
  store ptr %56, ptr %59, align 8, !tbaa !41
  %60 = load ptr, ptr %17, align 8, !tbaa !41
  %61 = load ptr, ptr %14, align 8, !tbaa !22
  %62 = getelementptr inbounds nuw %struct.AudioRNNContext, ptr %61, i32 0, i32 7
  %63 = getelementptr inbounds [2 x ptr], ptr %62, i64 0, i64 0
  store ptr %60, ptr %63, align 16, !tbaa !41
  call void @llvm.lifetime.end.p0(i64 8, ptr %17) #11
  br label %64

64:                                               ; preds = %48
  br label %65

65:                                               ; preds = %64
  call void @llvm.lifetime.start.p0(i64 4, ptr %18) #11
  store i32 0, ptr %18, align 4, !tbaa !29
  br label %66

66:                                               ; preds = %109, %65
  %67 = load i32, ptr %18, align 4, !tbaa !29
  %68 = load ptr, ptr %14, align 8, !tbaa !22
  %69 = getelementptr inbounds nuw %struct.AudioRNNContext, ptr %68, i32 0, i32 3
  %70 = load i32, ptr %69, align 4, !tbaa !35
  %71 = icmp slt i32 %67, %70
  br i1 %71, label %73, label %72

72:                                               ; preds = %66
  store i32 4, ptr %16, align 4
  call void @llvm.lifetime.end.p0(i64 4, ptr %18) #11
  br label %112

73:                                               ; preds = %66
  br label %74

74:                                               ; preds = %73
  call void @llvm.lifetime.start.p0(i64 32, ptr %19) #11
  %75 = load ptr, ptr %14, align 8, !tbaa !22
  %76 = getelementptr inbounds nuw %struct.AudioRNNContext, ptr %75, i32 0, i32 4
  %77 = load ptr, ptr %76, align 8, !tbaa !36
  %78 = load i32, ptr %18, align 4, !tbaa !29
  %79 = sext i32 %78 to i64
  %80 = getelementptr inbounds %struct.DenoiseState, ptr %77, i64 %79
  %81 = getelementptr inbounds nuw %struct.DenoiseState, ptr %80, i32 0, i32 12
  %82 = getelementptr inbounds [2 x %struct.RNNState], ptr %81, i64 0, i64 1
  call void @llvm.memcpy.p0.p0.i64(ptr align 8 %19, ptr align 8 %82, i64 32, i1 false), !tbaa.struct !43
  %83 = load ptr, ptr %14, align 8, !tbaa !22
  %84 = getelementptr inbounds nuw %struct.AudioRNNContext, ptr %83, i32 0, i32 4
  %85 = load ptr, ptr %84, align 8, !tbaa !36
  %86 = load i32, ptr %18, align 4, !tbaa !29
  %87 = sext i32 %86 to i64
  %88 = getelementptr inbounds %struct.DenoiseState, ptr %85, i64 %87
  %89 = getelementptr inbounds nuw %struct.DenoiseState, ptr %88, i32 0, i32 12
  %90 = getelementptr inbounds [2 x %struct.RNNState], ptr %89, i64 0, i64 1
  %91 = load ptr, ptr %14, align 8, !tbaa !22
  %92 = getelementptr inbounds nuw %struct.AudioRNNContext, ptr %91, i32 0, i32 4
  %93 = load ptr, ptr %92, align 8, !tbaa !36
  %94 = load i32, ptr %18, align 4, !tbaa !29
  %95 = sext i32 %94 to i64
  %96 = getelementptr inbounds %struct.DenoiseState, ptr %93, i64 %95
  %97 = getelementptr inbounds nuw %struct.DenoiseState, ptr %96, i32 0, i32 12
  %98 = getelementptr inbounds [2 x %struct.RNNState], ptr %97, i64 0, i64 0
  call void @llvm.memcpy.p0.p0.i64(ptr align 8 %90, ptr align 8 %98, i64 32, i1 false), !tbaa.struct !43
  %99 = load ptr, ptr %14, align 8, !tbaa !22
  %100 = getelementptr inbounds nuw %struct.AudioRNNContext, ptr %99, i32 0, i32 4
  %101 = load ptr, ptr %100, align 8, !tbaa !36
  %102 = load i32, ptr %18, align 4, !tbaa !29
  %103 = sext i32 %102 to i64
  %104 = getelementptr inbounds %struct.DenoiseState, ptr %101, i64 %103
  %105 = getelementptr inbounds nuw %struct.DenoiseState, ptr %104, i32 0, i32 12
  %106 = getelementptr inbounds [2 x %struct.RNNState], ptr %105, i64 0, i64 0
  call void @llvm.memcpy.p0.p0.i64(ptr align 8 %106, ptr align 8 %19, i64 32, i1 false), !tbaa.struct !43
  call void @llvm.lifetime.end.p0(i64 32, ptr %19) #11
  br label %107

107:                                              ; preds = %74
  br label %108

108:                                              ; preds = %107
  br label %109

109:                                              ; preds = %108
  %110 = load i32, ptr %18, align 4, !tbaa !29
  %111 = add nsw i32 %110, 1
  store i32 %111, ptr %18, align 4, !tbaa !29
  br label %66, !llvm.loop !46

112:                                              ; preds = %72
  %113 = load ptr, ptr %8, align 8, !tbaa !4
  %114 = getelementptr inbounds nuw %struct.AVFilterContext, ptr %113, i32 0, i32 4
  %115 = load ptr, ptr %114, align 8, !tbaa !47
  %116 = getelementptr inbounds ptr, ptr %115, i64 0
  %117 = load ptr, ptr %116, align 8, !tbaa !48
  %118 = call i32 @config_input(ptr noundef %117)
  store i32 %118, ptr %15, align 4, !tbaa !29
  %119 = load i32, ptr %15, align 4, !tbaa !29
  %120 = icmp slt i32 %119, 0
  br i1 %120, label %121, label %188

121:                                              ; preds = %112
  call void @llvm.lifetime.start.p0(i64 4, ptr %20) #11
  store i32 0, ptr %20, align 4, !tbaa !29
  br label %122

122:                                              ; preds = %165, %121
  %123 = load i32, ptr %20, align 4, !tbaa !29
  %124 = load ptr, ptr %14, align 8, !tbaa !22
  %125 = getelementptr inbounds nuw %struct.AudioRNNContext, ptr %124, i32 0, i32 3
  %126 = load i32, ptr %125, align 4, !tbaa !35
  %127 = icmp slt i32 %123, %126
  br i1 %127, label %129, label %128

128:                                              ; preds = %122
  store i32 9, ptr %16, align 4
  call void @llvm.lifetime.end.p0(i64 4, ptr %20) #11
  br label %168

129:                                              ; preds = %122
  br label %130

130:                                              ; preds = %129
  call void @llvm.lifetime.start.p0(i64 32, ptr %21) #11
  %131 = load ptr, ptr %14, align 8, !tbaa !22
  %132 = getelementptr inbounds nuw %struct.AudioRNNContext, ptr %131, i32 0, i32 4
  %133 = load ptr, ptr %132, align 8, !tbaa !36
  %134 = load i32, ptr %20, align 4, !tbaa !29
  %135 = sext i32 %134 to i64
  %136 = getelementptr inbounds %struct.DenoiseState, ptr %133, i64 %135
  %137 = getelementptr inbounds nuw %struct.DenoiseState, ptr %136, i32 0, i32 12
  %138 = getelementptr inbounds [2 x %struct.RNNState], ptr %137, i64 0, i64 1
  call void @llvm.memcpy.p0.p0.i64(ptr align 8 %21, ptr align 8 %138, i64 32, i1 false), !tbaa.struct !43
  %139 = load ptr, ptr %14, align 8, !tbaa !22
  %140 = getelementptr inbounds nuw %struct.AudioRNNContext, ptr %139, i32 0, i32 4
  %141 = load ptr, ptr %140, align 8, !tbaa !36
  %142 = load i32, ptr %20, align 4, !tbaa !29
  %143 = sext i32 %142 to i64
  %144 = getelementptr inbounds %struct.DenoiseState, ptr %141, i64 %143
  %145 = getelementptr inbounds nuw %struct.DenoiseState, ptr %144, i32 0, i32 12
  %146 = getelementptr inbounds [2 x %struct.RNNState], ptr %145, i64 0, i64 1
  %147 = load ptr, ptr %14, align 8, !tbaa !22
  %148 = getelementptr inbounds nuw %struct.AudioRNNContext, ptr %147, i32 0, i32 4
  %149 = load ptr, ptr %148, align 8, !tbaa !36
  %150 = load i32, ptr %20, align 4, !tbaa !29
  %151 = sext i32 %150 to i64
  %152 = getelementptr inbounds %struct.DenoiseState, ptr %149, i64 %151
  %153 = getelementptr inbounds nuw %struct.DenoiseState, ptr %152, i32 0, i32 12
  %154 = getelementptr inbounds [2 x %struct.RNNState], ptr %153, i64 0, i64 0
  call void @llvm.memcpy.p0.p0.i64(ptr align 8 %146, ptr align 8 %154, i64 32, i1 false), !tbaa.struct !43
  %155 = load ptr, ptr %14, align 8, !tbaa !22
  %156 = getelementptr inbounds nuw %struct.AudioRNNContext, ptr %155, i32 0, i32 4
  %157 = load ptr, ptr %156, align 8, !tbaa !36
  %158 = load i32, ptr %20, align 4, !tbaa !29
  %159 = sext i32 %158 to i64
  %160 = getelementptr inbounds %struct.DenoiseState, ptr %157, i64 %159
  %161 = getelementptr inbounds nuw %struct.DenoiseState, ptr %160, i32 0, i32 12
  %162 = getelementptr inbounds [2 x %struct.RNNState], ptr %161, i64 0, i64 0
  call void @llvm.memcpy.p0.p0.i64(ptr align 8 %162, ptr align 8 %21, i64 32, i1 false), !tbaa.struct !43
  call void @llvm.lifetime.end.p0(i64 32, ptr %21) #11
  br label %163

163:                                              ; preds = %130
  br label %164

164:                                              ; preds = %163
  br label %165

165:                                              ; preds = %164
  %166 = load i32, ptr %20, align 4, !tbaa !29
  %167 = add nsw i32 %166, 1
  store i32 %167, ptr %20, align 4, !tbaa !29
  br label %122, !llvm.loop !50

168:                                              ; preds = %128
  br label %169

169:                                              ; preds = %168
  call void @llvm.lifetime.start.p0(i64 8, ptr %22) #11
  %170 = load ptr, ptr %14, align 8, !tbaa !22
  %171 = getelementptr inbounds nuw %struct.AudioRNNContext, ptr %170, i32 0, i32 7
  %172 = getelementptr inbounds [2 x ptr], ptr %171, i64 0, i64 1
  %173 = load ptr, ptr %172, align 8, !tbaa !41
  store ptr %173, ptr %22, align 8, !tbaa !41
  %174 = load ptr, ptr %14, align 8, !tbaa !22
  %175 = getelementptr inbounds nuw %struct.AudioRNNContext, ptr %174, i32 0, i32 7
  %176 = getelementptr inbounds [2 x ptr], ptr %175, i64 0, i64 0
  %177 = load ptr, ptr %176, align 16, !tbaa !41
  %178 = load ptr, ptr %14, align 8, !tbaa !22
  %179 = getelementptr inbounds nuw %struct.AudioRNNContext, ptr %178, i32 0, i32 7
  %180 = getelementptr inbounds [2 x ptr], ptr %179, i64 0, i64 1
  store ptr %177, ptr %180, align 8, !tbaa !41
  %181 = load ptr, ptr %22, align 8, !tbaa !41
  %182 = load ptr, ptr %14, align 8, !tbaa !22
  %183 = getelementptr inbounds nuw %struct.AudioRNNContext, ptr %182, i32 0, i32 7
  %184 = getelementptr inbounds [2 x ptr], ptr %183, i64 0, i64 0
  store ptr %181, ptr %184, align 16, !tbaa !41
  call void @llvm.lifetime.end.p0(i64 8, ptr %22) #11
  br label %185

185:                                              ; preds = %169
  br label %186

186:                                              ; preds = %185
  %187 = load i32, ptr %15, align 4, !tbaa !29
  store i32 %187, ptr %7, align 4
  store i32 1, ptr %16, align 4
  br label %190

188:                                              ; preds = %112
  %189 = load ptr, ptr %8, align 8, !tbaa !4
  call void @free_model(ptr noundef %189, i32 noundef 1)
  store i32 0, ptr %7, align 4
  store i32 1, ptr %16, align 4
  br label %190

190:                                              ; preds = %188, %186, %45, %35
  call void @llvm.lifetime.end.p0(i64 4, ptr %15) #11
  call void @llvm.lifetime.end.p0(i64 8, ptr %14) #11
  %191 = load i32, ptr %7, align 4
  ret i32 %191
}