; Function Attrs: nounwind uwtable
define internal range(i32 -2147483648, 1) i32 @process_command(ptr noundef %0, ptr noundef %1, ptr noundef %2, ptr noundef %3, i32 noundef %4, i32 noundef %5) #1 {
  %7 = alloca %struct.RNNState, align 8
  %8 = alloca %struct.RNNState, align 8
  %9 = getelementptr inbounds nuw i8, ptr %0, i64 72
  %10 = load ptr, ptr %9, align 8, !tbaa !4
  %11 = tail call i32 @ff_filter_process_command(ptr noundef %0, ptr noundef %1, ptr noundef %2, ptr noundef %3, i32 noundef %4, i32 noundef %5) #11
  %12 = icmp slt i32 %11, 0
  br i1 %12, label %free_model.exit, label %13

13:                                               ; preds = %6
  %14 = getelementptr inbounds nuw i8, ptr %10, i64 6176
  %15 = getelementptr inbounds nuw i8, ptr %10, i64 6184
  %16 = tail call fastcc i32 @open_model(ptr noundef nonnull %0, ptr noundef nonnull %15)
  %17 = icmp slt i32 %16, 0
  br i1 %17, label %free_model.exit, label %18

18:                                               ; preds = %13
  %19 = load ptr, ptr %15, align 8, !tbaa !30
  %20 = load ptr, ptr %14, align 16, !tbaa !30
  store ptr %20, ptr %15, align 8, !tbaa !30
  store ptr %19, ptr %14, align 16, !tbaa !30
  %21 = getelementptr inbounds nuw i8, ptr %10, i64 20
  %22 = load i32, ptr %21, align 4, !tbaa !32
  %23 = icmp sgt i32 %22, 0
  br i1 %23, label %.lr.ph, label %._crit_edge

.lr.ph:                                           ; preds = %18
  %24 = getelementptr inbounds nuw i8, ptr %10, i64 24
  br label %33

._crit_edge:                                      ; preds = %33, %18
  %25 = getelementptr inbounds nuw i8, ptr %0, i64 32
  %26 = load ptr, ptr %25, align 8, !tbaa !36
  %27 = load ptr, ptr %26, align 8, !tbaa !37
  %28 = tail call i32 @config_input(ptr noundef %27)
  %29 = icmp slt i32 %28, 0
  br i1 %29, label %.preheader, label %55

.preheader:                                       ; preds = %._crit_edge
  %30 = load i32, ptr %21, align 4, !tbaa !32
  %31 = icmp sgt i32 %30, 0
  br i1 %31, label %.lr.ph56, label %._crit_edge57

.lr.ph56:                                         ; preds = %.preheader
  %32 = getelementptr inbounds nuw i8, ptr %10, i64 24
  br label %45

33:                                               ; preds = %.lr.ph, %33
  %indvars.iv = phi i64 [ 0, %.lr.ph ], [ %indvars.iv.next, %33 ]
  call void @llvm.lifetime.start.p0(i64 32, ptr nonnull %7)
  %34 = load ptr, ptr %24, align 8, !tbaa !33
  %35 = getelementptr inbounds nuw %struct.DenoiseState, ptr %34, i64 %indvars.iv, i32 12, i64 1
  call void @llvm.memcpy.p0.p0.i64(ptr noundef nonnull align 8 dereferenceable(32) %7, ptr noundef nonnull align 8 dereferenceable(32) %35, i64 32, i1 false), !tbaa.struct !39
  %36 = getelementptr inbounds nuw %struct.DenoiseState, ptr %34, i64 %indvars.iv, i32 12
  %37 = getelementptr inbounds nuw i8, ptr %36, i64 32
  tail call void @llvm.memcpy.p0.p0.i64(ptr noundef nonnull align 8 dereferenceable(32) %37, ptr noundef nonnull align 8 dereferenceable(32) %36, i64 32, i1 false), !tbaa.struct !39
  %38 = load ptr, ptr %24, align 8, !tbaa !33
  %39 = getelementptr inbounds nuw %struct.DenoiseState, ptr %38, i64 %indvars.iv, i32 12
  call void @llvm.memcpy.p0.p0.i64(ptr noundef nonnull align 8 dereferenceable(32) %39, ptr noundef nonnull align 8 dereferenceable(32) %7, i64 32, i1 false), !tbaa.struct !39
  call void @llvm.lifetime.end.p0(i64 32, ptr nonnull %7)
  %indvars.iv.next = add nuw nsw i64 %indvars.iv, 1
  %40 = load i32, ptr %21, align 4, !tbaa !32
  %41 = sext i32 %40 to i64
  %42 = icmp slt i64 %indvars.iv.next, %41
  br i1 %42, label %33, label %._crit_edge, !llvm.loop !42

._crit_edge57:                                    ; preds = %45, %.preheader
  %43 = load ptr, ptr %15, align 8, !tbaa !30
  %44 = load ptr, ptr %14, align 16, !tbaa !30
  store ptr %44, ptr %15, align 8, !tbaa !30
  store ptr %43, ptr %14, align 16, !tbaa !30
  br label %free_model.exit

45:                                               ; preds = %.lr.ph56, %45
  %indvars.iv59 = phi i64 [ 0, %.lr.ph56 ], [ %indvars.iv.next60, %45 ]
  call void @llvm.lifetime.start.p0(i64 32, ptr nonnull %8)
  %46 = load ptr, ptr %32, align 8, !tbaa !33
  %47 = getelementptr inbounds nuw %struct.DenoiseState, ptr %46, i64 %indvars.iv59, i32 12, i64 1
  call void @llvm.memcpy.p0.p0.i64(ptr noundef nonnull align 8 dereferenceable(32) %8, ptr noundef nonnull align 8 dereferenceable(32) %47, i64 32, i1 false), !tbaa.struct !39
  %48 = getelementptr inbounds nuw %struct.DenoiseState, ptr %46, i64 %indvars.iv59, i32 12
  %49 = getelementptr inbounds nuw i8, ptr %48, i64 32
  tail call void @llvm.memcpy.p0.p0.i64(ptr noundef nonnull align 8 dereferenceable(32) %49, ptr noundef nonnull align 8 dereferenceable(32) %48, i64 32, i1 false), !tbaa.struct !39
  %50 = load ptr, ptr %32, align 8, !tbaa !33
  %51 = getelementptr inbounds nuw %struct.DenoiseState, ptr %50, i64 %indvars.iv59, i32 12
  call void @llvm.memcpy.p0.p0.i64(ptr noundef nonnull align 8 dereferenceable(32) %51, ptr noundef nonnull align 8 dereferenceable(32) %8, i64 32, i1 false), !tbaa.struct !39
  call void @llvm.lifetime.end.p0(i64 32, ptr nonnull %8)
  %indvars.iv.next60 = add nuw nsw i64 %indvars.iv59, 1
  %52 = load i32, ptr %21, align 4, !tbaa !32
  %53 = sext i32 %52 to i64
  %54 = icmp slt i64 %indvars.iv.next60, %53
  br i1 %54, label %45, label %._crit_edge57, !llvm.loop !43

55:                                               ; preds = %._crit_edge
  %.val = load ptr, ptr %9, align 8, !tbaa !4
  %56 = getelementptr inbounds nuw i8, ptr %.val, i64 6184
  %57 = load ptr, ptr %56, align 8, !tbaa !30
  tail call fastcc void @rnnoise_model_free(ptr noundef %57)
  store ptr null, ptr %56, align 8, !tbaa !30
  %58 = getelementptr inbounds nuw i8, ptr %.val, i64 24
  %59 = getelementptr inbounds nuw i8, ptr %.val, i64 20
  %60 = load i32, ptr %59, align 4, !tbaa !32
  %61 = icmp sgt i32 %60, 0
  br i1 %61, label %.lr.ph.i, label %free_model.exit

.lr.ph.i:                                         ; preds = %55, %63
  %indvars.iv.i = phi i64 [ %indvars.iv.next.i, %63 ], [ 0, %55 ]
  %62 = load ptr, ptr %58, align 8, !tbaa !33
  %.not.i = icmp eq ptr %62, null
  br i1 %.not.i, label %free_model.exit, label %63

63:                                               ; preds = %.lr.ph.i
  %64 = getelementptr inbounds nuw %struct.DenoiseState, ptr %62, i64 %indvars.iv.i, i32 12, i64 1
  tail call void @av_freep(ptr noundef nonnull %64) #11
  %65 = load ptr, ptr %58, align 8, !tbaa !33
  %66 = getelementptr inbounds nuw %struct.DenoiseState, ptr %65, i64 %indvars.iv.i, i32 12, i64 1, i32 1
  tail call void @av_freep(ptr noundef nonnull %66) #11
  %67 = load ptr, ptr %58, align 8, !tbaa !33
  %68 = getelementptr inbounds nuw %struct.DenoiseState, ptr %67, i64 %indvars.iv.i, i32 12, i64 1, i32 2
  tail call void @av_freep(ptr noundef nonnull %68) #11
  %indvars.iv.next.i = add nuw nsw i64 %indvars.iv.i, 1
  %69 = load i32, ptr %59, align 4, !tbaa !32
  %70 = sext i32 %69 to i64
  %71 = icmp slt i64 %indvars.iv.next.i, %70
  br i1 %71, label %.lr.ph.i, label %free_model.exit, !llvm.loop !34

free_model.exit:                                  ; preds = %63, %.lr.ph.i, %55, %13, %6, %._crit_edge57
  %.0 = phi i32 [ %28, %._crit_edge57 ], [ %11, %6 ], [ %16, %13 ], [ 0, %55 ], [ 0, %.lr.ph.i ], [ 0, %63 ]
  ret i32 %.0
}